; Function Attrs: mustprogress nounwind uwtable
define dso_local noundef zeroext i1 @_ZN4llvm8LLParser9parseFlagERj(ptr noundef nonnull align 8 dereferenceable(1768) %0, ptr nocapture noundef nonnull writeonly align 4 dereferenceable(4) %1) local_unnamed_addr #0 align 2 {
  %3 = alloca %"class.llvm::Twine", align 8
  %4 = getelementptr inbounds nuw i8, ptr %0, i64 176
  %5 = getelementptr inbounds i8, ptr %0, i64 232
  %6 = load i32, ptr %5, align 8
  %.not = icmp eq i32 %6, 513
  br i1 %.not, label %7, label %12

7:                                                ; preds = %2
  %8 = getelementptr inbounds i8, ptr %0, i64 320
  %9 = getelementptr inbounds i8, ptr %0, i64 332
  %10 = load i8, ptr %9, align 4
  %11 = trunc i8 %10 to i1
  br i1 %11, label %18, label %12

12:                                               ; preds = %7, %2
  %13 = getelementptr inbounds nuw i8, ptr %3, i64 32
  %14 = getelementptr inbounds nuw i8, ptr %3, i64 33
  store i8 1, ptr %14, align 1
  store ptr @.str.76, ptr %3, align 8
  store i8 3, ptr %13, align 8
  %15 = getelementptr inbounds i8, ptr %0, i64 224
  %16 = load ptr, ptr %15, align 8
  %17 = call noundef zeroext i1 @_ZNK4llvm7LLLexer5ErrorENS_5SMLocERKNS_5TwineE(ptr noundef nonnull align 8 dereferenceable(161) %4, ptr %16, ptr noundef nonnull align 8 dereferenceable(34) %3) #25
  br label %31

18:                                               ; preds = %7
  %19 = getelementptr inbounds i8, ptr %0, i64 328
  %20 = load i32, ptr %19, align 8
  %21 = icmp ult i32 %20, 65
  br i1 %21, label %22, label %25

22:                                               ; preds = %18
  %23 = load i64, ptr %8, align 8
  %24 = icmp eq i64 %23, 0
  br label %_ZNK4llvm5APInt12getBoolValueEv.exit

25:                                               ; preds = %18
  %26 = tail call noundef i32 @_ZNK4llvm5APInt25countLeadingZerosSlowCaseEv(ptr noundef nonnull align 8 dereferenceable(12) %8) #27
  %27 = icmp eq i32 %26, %20
  br label %_ZNK4llvm5APInt12getBoolValueEv.exit

_ZNK4llvm5APInt12getBoolValueEv.exit:             ; preds = %22, %25
  %.0.i.i = phi i1 [ %24, %22 ], [ %27, %25 ]
  %28 = xor i1 %.0.i.i, true
  %29 = zext i1 %28 to i32
  store i32 %29, ptr %1, align 4
  %30 = tail call noundef i32 @_ZN4llvm7LLLexer8LexTokenEv(ptr noundef nonnull align 8 dereferenceable(161) %4) #25
  store i32 %30, ptr %5, align 8
  br label %31

31:                                               ; preds = %_ZNK4llvm5APInt12getBoolValueEv.exit, %12
  %.0 = phi i1 [ %17, %12 ], [ false, %_ZNK4llvm5APInt12getBoolValueEv.exit ]
  ret i1 %.0
}